; Function Attrs: null_pointer_is_valid sspstrong uwtable
define internal fastcc void @bind_receiver_resp(ptr noundef %0, ptr noundef %1, ptr noundef %2) unnamed_addr #0 {
  %4 = alloca i32, align 4
  %5 = load i32, ptr @hf_smpp_system_id, align 4
  %6 = tail call i32 @tvb_strsize(ptr noundef %1, i32 noundef 16)
  %7 = icmp ugt i32 %6, 1
  br i1 %7, label %8, label %smpp_handle_string.exit

8:                                                ; preds = %3
  %9 = tail call ptr @proto_tree_add_item(ptr noundef %0, i32 noundef %5, ptr noundef %1, i32 noundef 16, i32 noundef %6, i32 noundef 0)
  br label %smpp_handle_string.exit

smpp_handle_string.exit:                          ; preds = %3, %8
  %10 = add i32 %6, 16
  store i32 %10, ptr %4, align 4
  call fastcc void @smpp_handle_tlv(ptr noundef %0, ptr noundef %1, ptr noundef %2, ptr noundef nonnull %4, ptr noundef null)
  ret void
}